ccopy_reg
_reconstructor
p0
(cmodule.clsHinet
Hinet
p1
c__builtin__
object
p2
Ntp3
Rp4
(dp5
S'proc_cnt'
p6
I50
sS'opend_host'
p7
(lp8
sS'has_apk_host'
p9
(lp10
S'1.34.1.89'
p11
aS'1.34.241.41'
p12
aS'1.160.147.88'
p13
aS'1.161.10.244'
p14
aS'1.171.164.140'
p15
aS'1.173.28.169'
p16
aS'1.173.28.170'
p17
aS'36.224.108.94'
p18
aS'36.225.28.193'
p19
aS'36.225.80.109'
p20
aS'36.226.18.91'
p21
aS'36.226.19.5'
p22
aS'36.227.84.165'
p23
aS'36.227.89.114'
p24
aS'36.228.165.69'
p25
aS'36.229.163.56'
p26
aS'36.230.17.186'
p27
aS'36.230.81.120'
p28
aS'36.230.148.100'
p29
aS'36.238.153.219'
p30
aS'59.115.224.180'
p31
aS'59.120.59.215'
p32
aS'59.120.197.109'
p33
aS'59.124.13.67'
p34
aS'59.124.15.137'
p35
aS'59.125.26.212'
p36
aS'59.125.170.62'
p37
aS'59.125.212.16'
p38
aS'59.127.87.157'
p39
aS'59.127.209.87'
p40
aS'60.248.91.56'
p41
aS'60.248.111.206'
p42
aS'60.248.176.186'
p43
aS'60.250.46.2'
p44
aS'60.250.195.171'
p45
aS'60.251.32.34'
p46
aS'60.251.61.229'
p47
aS'60.251.61.231'
p48
aS'61.216.43.30'
p49
aS'61.216.43.97'
p50
aS'61.216.126.83'
p51
aS'61.219.255.37'
p52
aS'61.220.50.89'
p53
aS'61.220.138.105'
p54
aS'61.220.196.212'
p55
aS'61.221.12.102'
p56
aS'61.221.52.168'
p57
aS'61.221.128.235'
p58
aS'61.221.161.83'
p59
aS'61.222.29.234'
p60
aS'61.228.186.129'
p61
aS'61.228.190.30'
p62
aS'61.228.208.27'
p63
aS'61.228.208.32'
p64
aS'61.228.208.81'
p65
aS'61.230.103.187'
p66
aS'61.231.133.121'
p67
aS'61.231.134.22'
p68
aS'61.231.139.11'
p69
aS'111.251.58.40'
p70
aS'114.24.5.17'
p71
aS'114.32.64.200'
p72
aS'114.32.212.2'
p73
aS'114.33.203.110'
p74
aS'114.33.254.116'
p75
aS'114.34.118.199'
p76
aS'114.35.62.174'
p77
aS'114.35.136.17'
p78
aS'114.36.135.66'
p79
aS'114.43.176.241'
p80
aS'114.43.187.244'
p81
aS'114.43.188.65'
p82
aS'114.43.188.90'
p83
aS'114.43.189.119'
p84
aS'114.45.77.1'
p85
aS'118.166.113.187'
p86
aS'118.166.115.232'
p87
aS'118.166.117.26'
p88
aS'118.166.133.11'
p89
aS'118.167.129.231'
p90
asS'iprange'
p91
(lp92
(lp93
S'1.34.0.0'
p94
aS'1.35.255.255'
p95
aa(lp96
S'1.160.0.0'
p97
aS'1.175.255.255'
p98
aa(lp99
S'36.224.0.0'
p100
aS'36.239.255.255'
p101
aa(lp102
S'43.255.92.0'
p103
aS'43.255.95.255'
p104
aa(lp105
S'59.112.0.0'
p106
aS'59.123.255.255'
p107
aa(lp108
S'59.124.0.0'
p109
aS'59.127.255.255'
p110
aa(lp111
S'60.248.0.0'
p112
aS'60.248.255.255'
p113
aa(lp114
S'60.249.0.0'
p115
aS'60.249.255.255'
p116
aa(lp117
S'60.250.0.0'
p118
aS'60.251.255.255'
p119
aa(lp120
S'61.216.0.0'
p121
aS'61.219.255.255'
p122
aa(lp123
S'61.220.0.0'
p124
aS'61.227.255.255'
p125
aa(lp126
S'61.228.0.0'
p127
aS'61.231.255.255'
p128
aa(lp129
S'103.25.236.0'
p130
aS'103.25.239.255'
p131
aa(lp132
S'111.240.0.0'
p133
aS'111.255.255.255'
p134
aa(lp135
S'114.24.0.0'
p136
aS'114.27.255.255'
p137
aa(lp138
S'114.32.0.0'
p139
aS'114.47.255.255'
p140
aa(lp141
S'118.160.0.0'
p142
aS'118.167.255.255'
p143
aa(lp144
S'118.168.0.0'
p145
aS'118.171.255.255'
p146
aasb.